; Function Attrs: nounwind uwtable
define dso_local range(i32 -1, 1) i32 @slurm_set_fs_dampeningfactor(i16 noundef zeroext %0) local_unnamed_addr #0 {
  %2 = alloca %struct.slurm_msg, align 8
  %3 = alloca %struct.slurm_msg, align 8
  %4 = alloca %struct.set_fs_dampening_factor_msg, align 2
  call void @llvm.lifetime.start.p0(i64 424, ptr nonnull %2) #6
  call void @llvm.lifetime.start.p0(i64 424, ptr nonnull %3) #6
  call void @llvm.lifetime.start.p0(i64 2, ptr nonnull %4) #6
  call void @slurm_msg_t_init(ptr noundef nonnull %2) #6
  call void @slurm_msg_t_init(ptr noundef nonnull %3) #6
  store i16 %0, ptr %4, align 2
  %5 = getelementptr inbounds nuw i8, ptr %2, i64 212
  store i16 1023, ptr %5, align 4
  %6 = getelementptr inbounds nuw i8, ptr %2, i64 200
  store ptr %4, ptr %6, align 8
  %7 = load ptr, ptr @working_cluster_rec, align 8
  %8 = call i32 @slurm_send_recv_controller_msg(ptr noundef nonnull %2, ptr noundef nonnull %3, ptr noundef %7) #6
  %9 = icmp slt i32 %8, 0
  br i1 %9, label %18, label %10

10:                                               ; preds = %1
  %11 = getelementptr inbounds nuw i8, ptr %3, i64 212
  %12 = load i16, ptr %11, align 4
  %cond = icmp eq i16 %12, 8001
  br i1 %cond, label %13, label %.sink.split

13:                                               ; preds = %10
  %14 = getelementptr inbounds nuw i8, ptr %3, i64 200
  %15 = load ptr, ptr %14, align 8
  %16 = load i32, ptr %15, align 4
  call void @slurm_free_return_code_msg(ptr noundef nonnull %15) #6
  %.not = icmp eq i32 %16, 0
  br i1 %.not, label %18, label %.sink.split

.sink.split:                                      ; preds = %10, %13
  %.sink = phi i32 [ %16, %13 ], [ 1000, %10 ]
  %17 = tail call ptr @__errno_location() #7
  store i32 %.sink, ptr %17, align 4
  br label %18

18:                                               ; preds = %.sink.split, %13, %1
  %.0 = phi i32 [ -1, %1 ], [ 0, %13 ], [ -1, %.sink.split ]
  call void @llvm.lifetime.end.p0(i64 2, ptr nonnull %4) #6
  call void @llvm.lifetime.end.p0(i64 424, ptr nonnull %3) #6
  call void @llvm.lifetime.end.p0(i64 424, ptr nonnull %2) #6
  ret i32 %.0
}